ARM GAS  /tmp/ccISJtFt.s 			page 1


   1              		.syntax unified
   2              		.cpu cortex-m0
   3              		.fpu softvfp
   4              		.eabi_attribute 20, 1	@ Tag_ABI_FP_denormal
   5              		.eabi_attribute 21, 1	@ Tag_ABI_FP_exceptions
   6              		.eabi_attribute 23, 3	@ Tag_ABI_FP_number_model
   7              		.eabi_attribute 24, 1	@ Tag_ABI_align8_needed
   8              		.eabi_attribute 25, 1	@ Tag_ABI_align8_preserved
   9              		.eabi_attribute 26, 1	@ Tag_ABI_enum_size
  10              		.eabi_attribute 30, 6	@ Tag_ABI_optimization_goals
  11              		.eabi_attribute 34, 0	@ Tag_CPU_unaligned_access
  12              		.eabi_attribute 18, 4	@ Tag_ABI_PCS_wchar_t
  13              		.file	"main.c"
  14              	@ GNU C11 (GNU Tools for ARM Embedded Processors) version 5.4.1 20160919 (release) [ARM/embedded-5-
  15              	@	compiled by GNU C version 4.7.4, GMP version 4.3.2, MPFR version 2.4.2, MPC version 0.8.1
  16              	@ GGC heuristics: --param ggc-min-expand=100 --param ggc-min-heapsize=131072
  17              	@ options passed:  -I . -I ./inc -imultilib armv6-m
  18              	@ -iprefix /srv/gcc-arm-none-eabi-5_4-2016q3/bin/../lib/gcc/arm-none-eabi/5.4.1/
  19              	@ -isysroot /srv/gcc-arm-none-eabi-5_4-2016q3/bin/../arm-none-eabi
  20              	@ -MD code/main.d -MF .dep/main.o.d -MP -MQ code/main.o -D__USES_INITFINI__
  21              	@ -D RUN_FROM_FLASH=1 code/main.c -mcpu=cortex-m0 -mthumb
  22              	@ -auxbase-strip code/main.o -gdwarf-2 -O0 -Wall -Wstrict-prototypes
  23              	@ -fomit-frame-pointer -fverbose-asm
  24              	@ options enabled:  -faggressive-loop-optimizations -fauto-inc-dec
  25              	@ -fchkp-check-incomplete-type -fchkp-check-read -fchkp-check-write
  26              	@ -fchkp-instrument-calls -fchkp-narrow-bounds -fchkp-optimize
  27              	@ -fchkp-store-bounds -fchkp-use-static-bounds
  28              	@ -fchkp-use-static-const-bounds -fchkp-use-wrappers -fcommon
  29              	@ -fdelete-null-pointer-checks -fdwarf2-cfi-asm -fearly-inlining
  30              	@ -feliminate-unused-debug-types -ffunction-cse -fgcse-lm -fgnu-runtime
  31              	@ -fgnu-unique -fident -finline-atomics -fira-hoist-pressure
  32              	@ -fira-share-save-slots -fira-share-spill-slots -fivopts
  33              	@ -fkeep-static-consts -fleading-underscore -flifetime-dse
  34              	@ -flto-odr-type-merging -fmath-errno -fmerge-debug-strings
  35              	@ -fomit-frame-pointer -fpeephole -fprefetch-loop-arrays
  36              	@ -freg-struct-return -fsched-critical-path-heuristic
  37              	@ -fsched-dep-count-heuristic -fsched-group-heuristic -fsched-interblock
  38              	@ -fsched-last-insn-heuristic -fsched-rank-heuristic -fsched-spec
  39              	@ -fsched-spec-insn-heuristic -fsched-stalled-insns-dep
  40              	@ -fsemantic-interposition -fshow-column -fsigned-zeros
  41              	@ -fsplit-ivs-in-unroller -fstdarg-opt -fstrict-volatile-bitfields
  42              	@ -fsync-libcalls -ftrapping-math -ftree-coalesce-vars -ftree-cselim
  43              	@ -ftree-forwprop -ftree-loop-if-convert -ftree-loop-im -ftree-loop-ivcanon
  44              	@ -ftree-loop-optimize -ftree-parallelize-loops= -ftree-phiprop
  45              	@ -ftree-reassoc -ftree-scev-cprop -funit-at-a-time -fverbose-asm
  46              	@ -fzero-initialized-in-bss -mlittle-endian -mpic-data-is-text-relative
  47              	@ -msched-prolog -mthumb -mvectorize-with-neon-quad
  48              	
  49              		.text
  50              	.Ltext0:
  51              		.cfi_sections	.debug_frame
  52              		.global	SW_REGS
  53              		.data
  54              		.align	2
  55              		.type	SW_REGS, %object
  56              		.size	SW_REGS, 4
  57              	SW_REGS:
ARM GAS  /tmp/ccISJtFt.s 			page 2


  58 0000 00000040 		.word	1073741824
  59              		.global	PIX_REGS
  60              		.align	2
  61              		.type	PIX_REGS, %object
  62              		.size	PIX_REGS, 4
  63              	PIX_REGS:
  64 0004 00000050 		.word	1342177280
  65              		.text
  66              		.align	2
  67              		.global	write_pix
  68              		.code	16
  69              		.thumb_func
  70              		.type	write_pix, %function
  71              	write_pix:
  72              	.LFB1:
  73              		.file 1 "code/main.c"
   1:code/main.c   **** #define __MAIN_C__
   2:code/main.c   **** 
   3:code/main.c   **** #include <stdint.h>
   4:code/main.c   **** #include <stdio.h>
   5:code/main.c   **** #include <stdbool.h>
   6:code/main.c   **** #include<math.h>
   7:code/main.c   **** 
   8:code/main.c   **** // Define the raw base address values for the i/o devices
   9:code/main.c   **** 
  10:code/main.c   **** #define AHB_SW_BASE                             0x40000000
  11:code/main.c   **** #define AHB_PIX_BASE                            0x50000000
  12:code/main.c   **** 
  13:code/main.c   **** // Define pointers with correct type for access to 32-bit i/o devices
  14:code/main.c   **** volatile uint32_t* SW_REGS = (volatile uint32_t*) AHB_SW_BASE;
  15:code/main.c   **** volatile uint32_t* PIX_REGS = (volatile uint32_t*) AHB_PIX_BASE;
  16:code/main.c   **** 
  17:code/main.c   **** #include <stdint.h>
  18:code/main.c   **** 
  19:code/main.c   **** /////////////////////////////////////////////////////////////////
  20:code/main.c   **** // Functions provided to access i/o devices
  21:code/main.c   **** ////////////////////////////////////////////////////////////////
  22:code/main.c   **** 
  23:code/main.c   **** void write_pix( int p_x, int p_y, int colour) {
  74              		.loc 1 23 0
  75              		.cfi_startproc
  76              		@ args = 0, pretend = 0, frame = 24
  77              		@ frame_needed = 0, uses_anonymous_args = 0
  78              		@ link register save eliminated.
  79 0000 86B0     		sub	sp, sp, #24	@,,
  80              	.LCFI0:
  81              		.cfi_def_cfa_offset 24
  82 0002 0390     		str	r0, [sp, #12]	@ p_x, p_x
  83 0004 0291     		str	r1, [sp, #8]	@ p_y, p_y
  84 0006 0192     		str	r2, [sp, #4]	@ colour, colour
  24:code/main.c   ****   int pix_address ;
  25:code/main.c   ****   pix_address = p_x + 640*p_y ;
  85              		.loc 1 25 0
  86 0008 029A     		ldr	r2, [sp, #8]	@ tmp116, p_y
  87 000a 1300     		movs	r3, r2	@ tmp117, tmp116
  88 000c 9B00     		lsls	r3, r3, #2	@ tmp117, tmp117,
  89 000e 9B18     		adds	r3, r3, r2	@ tmp117, tmp117, tmp116
ARM GAS  /tmp/ccISJtFt.s 			page 3


  90 0010 DB01     		lsls	r3, r3, #7	@ tmp118, tmp117,
  91 0012 1A00     		movs	r2, r3	@ D.5837, tmp117
  92 0014 039B     		ldr	r3, [sp, #12]	@ tmp120, p_x
  93 0016 D318     		adds	r3, r2, r3	@ tmp119, D.5837, tmp120
  94 0018 0593     		str	r3, [sp, #20]	@ tmp119, pix_address
  26:code/main.c   ****   PIX_REGS[pix_address] = colour;
  95              		.loc 1 26 0
  96 001a 054B     		ldr	r3, .L2	@ tmp121,
  97 001c 1A68     		ldr	r2, [r3]	@ D.5838, PIX_REGS
  98 001e 059B     		ldr	r3, [sp, #20]	@ D.5839, pix_address
  99 0020 9B00     		lsls	r3, r3, #2	@ D.5839, D.5839,
 100 0022 D318     		adds	r3, r2, r3	@ D.5838, D.5838, D.5839
 101 0024 019A     		ldr	r2, [sp, #4]	@ D.5840, colour
 102 0026 1A60     		str	r2, [r3]	@ D.5840, *_9
  27:code/main.c   ****   }
 103              		.loc 1 27 0
 104 0028 C046     		nop
 105 002a 06B0     		add	sp, sp, #24	@,,
 106              		@ sp needed	@
 107 002c 7047     		bx	lr
 108              	.L3:
 109 002e C046     		.align	2
 110              	.L2:
 111 0030 00000000 		.word	PIX_REGS
 112              		.cfi_endproc
 113              	.LFE1:
 114              		.size	write_pix, .-write_pix
 115              		.align	2
 116              		.global	PointinTriangle
 117              		.code	16
 118              		.thumb_func
 119              		.type	PointinTriangle, %function
 120              	PointinTriangle:
 121              	.LFB2:
  28:code/main.c   **** 
  29:code/main.c   **** bool PointinTriangle(int x1, int y1, int x2, int y2, int x3, int y3, int x, int y){
 122              		.loc 1 29 0
 123              		.cfi_startproc
 124              		@ args = 16, pretend = 0, frame = 32
 125              		@ frame_needed = 0, uses_anonymous_args = 0
 126              		@ link register save eliminated.
 127 0034 88B0     		sub	sp, sp, #32	@,,
 128              	.LCFI1:
 129              		.cfi_def_cfa_offset 32
 130 0036 0390     		str	r0, [sp, #12]	@ x1, x1
 131 0038 0291     		str	r1, [sp, #8]	@ y1, y1
 132 003a 0192     		str	r2, [sp, #4]	@ x2, x2
 133 003c 0093     		str	r3, [sp]	@ y2, y2
  30:code/main.c   ****   
  31:code/main.c   ****   int L1_detT   =   ((y2-y3)*(x-x3))+((x3-x2)*(y-y3)) ;
 134              		.loc 1 31 0
 135 003e 009A     		ldr	r2, [sp]	@ tmp131, y2
 136 0040 099B     		ldr	r3, [sp, #36]	@ tmp132, y3
 137 0042 D31A     		subs	r3, r2, r3	@ D.5842, tmp131, tmp132
 138 0044 0A99     		ldr	r1, [sp, #40]	@ tmp133, x
 139 0046 089A     		ldr	r2, [sp, #32]	@ tmp134, x3
 140 0048 8A1A     		subs	r2, r1, r2	@ D.5842, tmp133, tmp134
ARM GAS  /tmp/ccISJtFt.s 			page 4


 141 004a 5A43     		muls	r2, r3	@ D.5842, D.5842
 142 004c 0899     		ldr	r1, [sp, #32]	@ tmp135, x3
 143 004e 019B     		ldr	r3, [sp, #4]	@ tmp136, x2
 144 0050 CB1A     		subs	r3, r1, r3	@ D.5842, tmp135, tmp136
 145 0052 0B98     		ldr	r0, [sp, #44]	@ tmp137, y
 146 0054 0999     		ldr	r1, [sp, #36]	@ tmp138, y3
 147 0056 411A     		subs	r1, r0, r1	@ D.5842, tmp137, tmp138
 148 0058 4B43     		muls	r3, r1	@ D.5842, D.5842
 149 005a D318     		adds	r3, r2, r3	@ tmp139, D.5842, D.5842
 150 005c 0793     		str	r3, [sp, #28]	@ tmp139, L1_detT
  32:code/main.c   ****   int L2_detT   =   ((y3-y1)*(x-x3))+((x1-x3)*(y-y3)) ;
 151              		.loc 1 32 0
 152 005e 099A     		ldr	r2, [sp, #36]	@ tmp140, y3
 153 0060 029B     		ldr	r3, [sp, #8]	@ tmp141, y1
 154 0062 D31A     		subs	r3, r2, r3	@ D.5842, tmp140, tmp141
 155 0064 0A99     		ldr	r1, [sp, #40]	@ tmp142, x
 156 0066 089A     		ldr	r2, [sp, #32]	@ tmp143, x3
 157 0068 8A1A     		subs	r2, r1, r2	@ D.5842, tmp142, tmp143
 158 006a 5A43     		muls	r2, r3	@ D.5842, D.5842
 159 006c 0399     		ldr	r1, [sp, #12]	@ tmp144, x1
 160 006e 089B     		ldr	r3, [sp, #32]	@ tmp145, x3
 161 0070 CB1A     		subs	r3, r1, r3	@ D.5842, tmp144, tmp145
 162 0072 0B98     		ldr	r0, [sp, #44]	@ tmp146, y
 163 0074 0999     		ldr	r1, [sp, #36]	@ tmp147, y3
 164 0076 411A     		subs	r1, r0, r1	@ D.5842, tmp146, tmp147
 165 0078 4B43     		muls	r3, r1	@ D.5842, D.5842
 166 007a D318     		adds	r3, r2, r3	@ tmp148, D.5842, D.5842
 167 007c 0693     		str	r3, [sp, #24]	@ tmp148, L2_detT
  33:code/main.c   ****   int detT =   ((y2-y3)*(x1-x3))+((x3-x2)*(y1-y3)) ;
 168              		.loc 1 33 0
 169 007e 009A     		ldr	r2, [sp]	@ tmp149, y2
 170 0080 099B     		ldr	r3, [sp, #36]	@ tmp150, y3
 171 0082 D31A     		subs	r3, r2, r3	@ D.5842, tmp149, tmp150
 172 0084 0399     		ldr	r1, [sp, #12]	@ tmp151, x1
 173 0086 089A     		ldr	r2, [sp, #32]	@ tmp152, x3
 174 0088 8A1A     		subs	r2, r1, r2	@ D.5842, tmp151, tmp152
 175 008a 5A43     		muls	r2, r3	@ D.5842, D.5842
 176 008c 0899     		ldr	r1, [sp, #32]	@ tmp153, x3
 177 008e 019B     		ldr	r3, [sp, #4]	@ tmp154, x2
 178 0090 CB1A     		subs	r3, r1, r3	@ D.5842, tmp153, tmp154
 179 0092 0298     		ldr	r0, [sp, #8]	@ tmp155, y1
 180 0094 0999     		ldr	r1, [sp, #36]	@ tmp156, y3
 181 0096 411A     		subs	r1, r0, r1	@ D.5842, tmp155, tmp156
 182 0098 4B43     		muls	r3, r1	@ D.5842, D.5842
 183 009a D318     		adds	r3, r2, r3	@ tmp157, D.5842, D.5842
 184 009c 0593     		str	r3, [sp, #20]	@ tmp157, detT
  34:code/main.c   **** 
  35:code/main.c   **** if((L1_detT + L2_detT) > detT)
 185              		.loc 1 35 0
 186 009e 079A     		ldr	r2, [sp, #28]	@ tmp158, L1_detT
 187 00a0 069B     		ldr	r3, [sp, #24]	@ tmp159, L2_detT
 188 00a2 D218     		adds	r2, r2, r3	@ D.5842, tmp158, tmp159
 189 00a4 059B     		ldr	r3, [sp, #20]	@ tmp160, detT
 190 00a6 9A42     		cmp	r2, r3	@ D.5842, tmp160
 191 00a8 01DD     		ble	.L5	@,
  36:code/main.c   ****   return true ;
 192              		.loc 1 36 0
ARM GAS  /tmp/ccISJtFt.s 			page 5


 193 00aa 0123     		movs	r3, #1	@ D.5841,
 194 00ac 00E0     		b	.L6	@
 195              	.L5:
  37:code/main.c   **** else 
  38:code/main.c   ****   return false ;  
 196              		.loc 1 38 0
 197 00ae 0023     		movs	r3, #0	@ D.5841,
 198              	.L6:
  39:code/main.c   **** 
  40:code/main.c   **** }
 199              		.loc 1 40 0
 200 00b0 1800     		movs	r0, r3	@, <retval>
 201 00b2 08B0     		add	sp, sp, #32	@,,
 202              		@ sp needed	@
 203 00b4 7047     		bx	lr
 204              		.cfi_endproc
 205              	.LFE2:
 206              		.size	PointinTriangle, .-PointinTriangle
 207 00b6 C046     		.align	2
 208              		.global	read_switches
 209              		.code	16
 210              		.thumb_func
 211              		.type	read_switches, %function
 212              	read_switches:
 213              	.LFB3:
  41:code/main.c   **** 
  42:code/main.c   **** uint32_t read_switches(int addr) {
 214              		.loc 1 42 0
 215              		.cfi_startproc
 216              		@ args = 0, pretend = 0, frame = 8
 217              		@ frame_needed = 0, uses_anonymous_args = 0
 218              		@ link register save eliminated.
 219 00b8 82B0     		sub	sp, sp, #8	@,,
 220              	.LCFI2:
 221              		.cfi_def_cfa_offset 8
 222 00ba 0190     		str	r0, [sp, #4]	@ addr, addr
  43:code/main.c   **** 
  44:code/main.c   ****   return SW_REGS[addr];
 223              		.loc 1 44 0
 224 00bc 044B     		ldr	r3, .L9	@ tmp116,
 225 00be 1A68     		ldr	r2, [r3]	@ D.5843, SW_REGS
 226 00c0 019B     		ldr	r3, [sp, #4]	@ D.5844, addr
 227 00c2 9B00     		lsls	r3, r3, #2	@ D.5844, D.5844,
 228 00c4 D318     		adds	r3, r2, r3	@ D.5843, D.5843, D.5844
 229 00c6 1B68     		ldr	r3, [r3]	@ D.5845, *_6
  45:code/main.c   **** 
  46:code/main.c   **** }
 230              		.loc 1 46 0
 231 00c8 1800     		movs	r0, r3	@, <retval>
 232 00ca 02B0     		add	sp, sp, #8	@,,
 233              		@ sp needed	@
 234 00cc 7047     		bx	lr
 235              	.L10:
 236 00ce C046     		.align	2
 237              	.L9:
 238 00d0 00000000 		.word	SW_REGS
 239              		.cfi_endproc
ARM GAS  /tmp/ccISJtFt.s 			page 6


 240              	.LFE3:
 241              		.size	read_switches, .-read_switches
 242              		.align	2
 243              		.global	check_switches
 244              		.code	16
 245              		.thumb_func
 246              		.type	check_switches, %function
 247              	check_switches:
 248              	.LFB4:
  47:code/main.c   **** 
  48:code/main.c   **** bool check_switches(int addr) {
 249              		.loc 1 48 0
 250              		.cfi_startproc
 251              		@ args = 0, pretend = 0, frame = 16
 252              		@ frame_needed = 0, uses_anonymous_args = 0
 253              		@ link register save eliminated.
 254 00d4 84B0     		sub	sp, sp, #16	@,,
 255              	.LCFI3:
 256              		.cfi_def_cfa_offset 16
 257 00d6 0190     		str	r0, [sp, #4]	@ addr, addr
  49:code/main.c   **** 
  50:code/main.c   ****   int status, switches_ready;
  51:code/main.c   ****   
  52:code/main.c   ****   status = SW_REGS[2];
 258              		.loc 1 52 0
 259 00d8 094B     		ldr	r3, .L13	@ tmp116,
 260 00da 1B68     		ldr	r3, [r3]	@ D.5846, SW_REGS
 261 00dc 0833     		adds	r3, r3, #8	@ D.5846,
 262 00de 1B68     		ldr	r3, [r3]	@ D.5847, *_3
 263 00e0 0393     		str	r3, [sp, #12]	@ D.5847, status
  53:code/main.c   ****   
  54:code/main.c   ****   // use the addr value to select one bit of the status register
  55:code/main.c   ****   switches_ready = (status >> addr) & 1;
 264              		.loc 1 55 0
 265 00e2 039A     		ldr	r2, [sp, #12]	@ tmp117, status
 266 00e4 019B     		ldr	r3, [sp, #4]	@ tmp118, addr
 267 00e6 1A41     		asrs	r2, r2, r3	@ tmp117, tmp117, tmp118
 268 00e8 1300     		movs	r3, r2	@ D.5848, tmp117
 269 00ea 0122     		movs	r2, #1	@ tmp120,
 270 00ec 1340     		ands	r3, r2	@ tmp119, tmp120
 271 00ee 0293     		str	r3, [sp, #8]	@ tmp119, switches_ready
  56:code/main.c   ****   
  57:code/main.c   ****   return (switches_ready == 1);
 272              		.loc 1 57 0
 273 00f0 029B     		ldr	r3, [sp, #8]	@ tmp122, switches_ready
 274 00f2 013B     		subs	r3, r3, #1	@ tmp124,
 275 00f4 5A42     		rsbs	r2, r3, #0	@ tmp125, tmp124
 276 00f6 5341     		adcs	r3, r3, r2	@ tmp123, tmp124, tmp125
 277 00f8 DBB2     		uxtb	r3, r3	@ D.5849, tmp121
  58:code/main.c   **** 
  59:code/main.c   **** }
 278              		.loc 1 59 0
 279 00fa 1800     		movs	r0, r3	@, <retval>
 280 00fc 04B0     		add	sp, sp, #16	@,,
 281              		@ sp needed	@
 282 00fe 7047     		bx	lr
 283              	.L14:
ARM GAS  /tmp/ccISJtFt.s 			page 7


 284              		.align	2
 285              	.L13:
 286 0100 00000000 		.word	SW_REGS
 287              		.cfi_endproc
 288              	.LFE4:
 289              		.size	check_switches, .-check_switches
 290              		.align	2
 291              		.global	wait_for_any_switch_data
 292              		.code	16
 293              		.thumb_func
 294              		.type	wait_for_any_switch_data, %function
 295              	wait_for_any_switch_data:
 296              	.LFB5:
  60:code/main.c   **** 
  61:code/main.c   **** void wait_for_any_switch_data(void) {
 297              		.loc 1 61 0
 298              		.cfi_startproc
 299              		@ args = 0, pretend = 0, frame = 0
 300              		@ frame_needed = 0, uses_anonymous_args = 0
 301              		@ link register save eliminated.
  62:code/main.c   **** 
  63:code/main.c   ****   // this is a 'busy wait'
  64:code/main.c   **** 
  65:code/main.c   ****   //  ( it should only be used if there is nothing
  66:code/main.c   ****   //   else for the embedded system to do )
  67:code/main.c   **** 
  68:code/main.c   ****   while ( SW_REGS[2] == 0 );
 302              		.loc 1 68 0
 303 0104 C046     		nop
 304              	.L16:
 305              		.loc 1 68 0 is_stmt 0 discriminator 1
 306 0106 044B     		ldr	r3, .L18	@ tmp113,
 307 0108 1B68     		ldr	r3, [r3]	@ D.5850, SW_REGS
 308 010a 0833     		adds	r3, r3, #8	@ D.5850,
 309 010c 1B68     		ldr	r3, [r3]	@ D.5851, *_3
 310 010e 002B     		cmp	r3, #0	@ D.5851,
 311 0110 F9D0     		beq	.L16	@,
  69:code/main.c   ****   
  70:code/main.c   ****   return;
 312              		.loc 1 70 0 is_stmt 1
 313 0112 C046     		nop
  71:code/main.c   **** 
  72:code/main.c   **** }
 314              		.loc 1 72 0
 315              		@ sp needed	@
 316 0114 7047     		bx	lr
 317              	.L19:
 318 0116 C046     		.align	2
 319              	.L18:
 320 0118 00000000 		.word	SW_REGS
 321              		.cfi_endproc
 322              	.LFE5:
 323              		.size	wait_for_any_switch_data, .-wait_for_any_switch_data
 324              		.align	2
 325              		.global	main
 326              		.code	16
 327              		.thumb_func
ARM GAS  /tmp/ccISJtFt.s 			page 8


 328              		.type	main, %function
 329              	main:
 330              	.LFB6:
  73:code/main.c   **** 
  74:code/main.c   **** 
  75:code/main.c   **** //////////////////////////////////////////////////////////////////
  76:code/main.c   **** // Main Function
  77:code/main.c   **** //////////////////////////////////////////////////////////////////
  78:code/main.c   **** int main(void) {
 331              		.loc 1 78 0
 332              		.cfi_startproc
 333              		@ args = 0, pretend = 0, frame = 56
 334              		@ frame_needed = 0, uses_anonymous_args = 0
 335 011c 00B5     		push	{lr}	@
 336              	.LCFI4:
 337              		.cfi_def_cfa_offset 4
 338              		.cfi_offset 14, -4
 339 011e 8FB0     		sub	sp, sp, #60	@,,
 340              	.LCFI5:
 341              		.cfi_def_cfa_offset 64
 342              	.L27:
 343              	.LBB2:
  79:code/main.c   **** 
  80:code/main.c   ****   
  81:code/main.c   ****   
  82:code/main.c   **** while(1) {
  83:code/main.c   ****   int x1 = 10;
 344              		.loc 1 83 0
 345 0120 0A23     		movs	r3, #10	@ tmp139,
 346 0122 0B93     		str	r3, [sp, #44]	@ tmp139, x1
  84:code/main.c   ****   int y1 = 30;
 347              		.loc 1 84 0
 348 0124 1E23     		movs	r3, #30	@ tmp140,
 349 0126 0A93     		str	r3, [sp, #40]	@ tmp140, y1
  85:code/main.c   ****   
  86:code/main.c   ****  
  87:code/main.c   ****   int x2 = 20;
 350              		.loc 1 87 0
 351 0128 1423     		movs	r3, #20	@ tmp141,
 352 012a 0993     		str	r3, [sp, #36]	@ tmp141, x2
  88:code/main.c   ****   int y2 = 40;
 353              		.loc 1 88 0
 354 012c 2823     		movs	r3, #40	@ tmp142,
 355 012e 0893     		str	r3, [sp, #32]	@ tmp142, y2
  89:code/main.c   ****   
  90:code/main.c   ****   int x3 = 20;
 356              		.loc 1 90 0
 357 0130 1423     		movs	r3, #20	@ tmp143,
 358 0132 0793     		str	r3, [sp, #28]	@ tmp143, x3
  91:code/main.c   ****   int y3 = 30;
 359              		.loc 1 91 0
 360 0134 1E23     		movs	r3, #30	@ tmp144,
 361 0136 0693     		str	r3, [sp, #24]	@ tmp144, y3
 362              	.LBB3:
  92:code/main.c   ****   
  93:code/main.c   ****   
  94:code/main.c   ****   int L1_detT ;
ARM GAS  /tmp/ccISJtFt.s 			page 9


  95:code/main.c   ****   int L2_detT ;
  96:code/main.c   ****   int detT ;
  97:code/main.c   ****   
  98:code/main.c   ****   int L1_positive, L2_positive, L3_positive ;
  99:code/main.c   **** 
 100:code/main.c   **** 
 101:code/main.c   **** for (int x = 0 ; x < 640 ; x++){
 363              		.loc 1 101 0
 364 0138 0023     		movs	r3, #0	@ tmp145,
 365 013a 0D93     		str	r3, [sp, #52]	@ tmp145, x
 366 013c 72E0     		b	.L21	@
 367              	.L26:
 368              	.LBB4:
 102:code/main.c   ****     for (int y = 0 ; y < 480 ; y++) {
 369              		.loc 1 102 0
 370 013e 0023     		movs	r3, #0	@ tmp146,
 371 0140 0C93     		str	r3, [sp, #48]	@ tmp146, y
 372 0142 67E0     		b	.L22	@
 373              	.L25:
 103:code/main.c   ****     
 104:code/main.c   **** 	   L1_detT   =   ((y2-y3) *  (x-x3)) + ((x3-x2) *  (y-y3)) ;
 374              		.loc 1 104 0
 375 0144 089A     		ldr	r2, [sp, #32]	@ tmp147, y2
 376 0146 069B     		ldr	r3, [sp, #24]	@ tmp148, y3
 377 0148 D31A     		subs	r3, r2, r3	@ D.5852, tmp147, tmp148
 378 014a 0D99     		ldr	r1, [sp, #52]	@ tmp149, x
 379 014c 079A     		ldr	r2, [sp, #28]	@ tmp150, x3
 380 014e 8A1A     		subs	r2, r1, r2	@ D.5852, tmp149, tmp150
 381 0150 5A43     		muls	r2, r3	@ D.5852, D.5852
 382 0152 0799     		ldr	r1, [sp, #28]	@ tmp151, x3
 383 0154 099B     		ldr	r3, [sp, #36]	@ tmp152, x2
 384 0156 CB1A     		subs	r3, r1, r3	@ D.5852, tmp151, tmp152
 385 0158 0C98     		ldr	r0, [sp, #48]	@ tmp153, y
 386 015a 0699     		ldr	r1, [sp, #24]	@ tmp154, y3
 387 015c 411A     		subs	r1, r0, r1	@ D.5852, tmp153, tmp154
 388 015e 4B43     		muls	r3, r1	@ D.5852, D.5852
 389 0160 D318     		adds	r3, r2, r3	@ tmp155, D.5852, D.5852
 390 0162 0593     		str	r3, [sp, #20]	@ tmp155, L1_detT
 105:code/main.c   ****            L2_detT   =   ((y3-y1) *  (x-x3)) + ((x1-x3) *  (y-y3)) ;
 391              		.loc 1 105 0
 392 0164 069A     		ldr	r2, [sp, #24]	@ tmp156, y3
 393 0166 0A9B     		ldr	r3, [sp, #40]	@ tmp157, y1
 394 0168 D31A     		subs	r3, r2, r3	@ D.5852, tmp156, tmp157
 395 016a 0D99     		ldr	r1, [sp, #52]	@ tmp158, x
 396 016c 079A     		ldr	r2, [sp, #28]	@ tmp159, x3
 397 016e 8A1A     		subs	r2, r1, r2	@ D.5852, tmp158, tmp159
 398 0170 5A43     		muls	r2, r3	@ D.5852, D.5852
 399 0172 0B99     		ldr	r1, [sp, #44]	@ tmp160, x1
 400 0174 079B     		ldr	r3, [sp, #28]	@ tmp161, x3
 401 0176 CB1A     		subs	r3, r1, r3	@ D.5852, tmp160, tmp161
 402 0178 0C98     		ldr	r0, [sp, #48]	@ tmp162, y
 403 017a 0699     		ldr	r1, [sp, #24]	@ tmp163, y3
 404 017c 411A     		subs	r1, r0, r1	@ D.5852, tmp162, tmp163
 405 017e 4B43     		muls	r3, r1	@ D.5852, D.5852
 406 0180 D318     		adds	r3, r2, r3	@ tmp164, D.5852, D.5852
 407 0182 0493     		str	r3, [sp, #16]	@ tmp164, L2_detT
 106:code/main.c   ****            detT  =   	 ((y2-y3) * (x1-x3)) + ((x3-x2) * (y1-y3)) ;
ARM GAS  /tmp/ccISJtFt.s 			page 10


 408              		.loc 1 106 0
 409 0184 089A     		ldr	r2, [sp, #32]	@ tmp165, y2
 410 0186 069B     		ldr	r3, [sp, #24]	@ tmp166, y3
 411 0188 D31A     		subs	r3, r2, r3	@ D.5852, tmp165, tmp166
 412 018a 0B99     		ldr	r1, [sp, #44]	@ tmp167, x1
 413 018c 079A     		ldr	r2, [sp, #28]	@ tmp168, x3
 414 018e 8A1A     		subs	r2, r1, r2	@ D.5852, tmp167, tmp168
 415 0190 5A43     		muls	r2, r3	@ D.5852, D.5852
 416 0192 0799     		ldr	r1, [sp, #28]	@ tmp169, x3
 417 0194 099B     		ldr	r3, [sp, #36]	@ tmp170, x2
 418 0196 CB1A     		subs	r3, r1, r3	@ D.5852, tmp169, tmp170
 419 0198 0A98     		ldr	r0, [sp, #40]	@ tmp171, y1
 420 019a 0699     		ldr	r1, [sp, #24]	@ tmp172, y3
 421 019c 411A     		subs	r1, r0, r1	@ D.5852, tmp171, tmp172
 422 019e 4B43     		muls	r3, r1	@ D.5852, D.5852
 423 01a0 D318     		adds	r3, r2, r3	@ tmp173, D.5852, D.5852
 424 01a2 0393     		str	r3, [sp, #12]	@ tmp173, detT
 107:code/main.c   **** 	   
 108:code/main.c   ****           L1_positive = ((L1_detT >= 0) == (detT >= 0)) ;
 425              		.loc 1 108 0
 426 01a4 059B     		ldr	r3, [sp, #20]	@ tmp176, L1_detT
 427 01a6 DB0F     		lsrs	r3, r3, #31	@ tmp175, tmp176,
 428 01a8 DAB2     		uxtb	r2, r3	@ D.5853, tmp175
 429 01aa 039B     		ldr	r3, [sp, #12]	@ tmp179, detT
 430 01ac DB43     		mvns	r3, r3	@ tmp178, tmp179
 431 01ae DB0F     		lsrs	r3, r3, #31	@ tmp180, tmp178,
 432 01b0 DBB2     		uxtb	r3, r3	@ D.5853, tmp180
 433 01b2 5340     		eors	r3, r2	@ tmp181, D.5853
 434 01b4 DBB2     		uxtb	r3, r3	@ D.5853, tmp181
 435 01b6 0293     		str	r3, [sp, #8]	@ D.5853, L1_positive
 109:code/main.c   **** 	  L2_positive = ((L2_detT >= 0) == (detT >= 0)) ;
 436              		.loc 1 109 0
 437 01b8 049B     		ldr	r3, [sp, #16]	@ tmp184, L2_detT
 438 01ba DB0F     		lsrs	r3, r3, #31	@ tmp183, tmp184,
 439 01bc DAB2     		uxtb	r2, r3	@ D.5853, tmp183
 440 01be 039B     		ldr	r3, [sp, #12]	@ tmp187, detT
 441 01c0 DB43     		mvns	r3, r3	@ tmp186, tmp187
 442 01c2 DB0F     		lsrs	r3, r3, #31	@ tmp188, tmp186,
 443 01c4 DBB2     		uxtb	r3, r3	@ D.5853, tmp188
 444 01c6 5340     		eors	r3, r2	@ tmp189, D.5853
 445 01c8 DBB2     		uxtb	r3, r3	@ D.5853, tmp189
 446 01ca 0193     		str	r3, [sp, #4]	@ D.5853, L2_positive
 110:code/main.c   **** 	  L3_positive = (((L1_detT + L2_detT) <= detT) == (detT >= 0)) ;
 447              		.loc 1 110 0
 448 01cc 059A     		ldr	r2, [sp, #20]	@ tmp190, L1_detT
 449 01ce 049B     		ldr	r3, [sp, #16]	@ tmp191, L2_detT
 450 01d0 D218     		adds	r2, r2, r3	@ D.5852, tmp190, tmp191
 451 01d2 0123     		movs	r3, #1	@ tmp195,
 452 01d4 191C     		adds	r1, r3, #0	@ tmp192, tmp195
 453 01d6 039B     		ldr	r3, [sp, #12]	@ tmp196, detT
 454 01d8 9A42     		cmp	r2, r3	@ D.5852, tmp196
 455 01da 01DC     		bgt	.L23	@,
 456 01dc 0023     		movs	r3, #0	@ tmp197,
 457 01de 191C     		adds	r1, r3, #0	@ tmp192, tmp197
 458              	.L23:
 459 01e0 CAB2     		uxtb	r2, r1	@ D.5853, tmp192
 460 01e2 039B     		ldr	r3, [sp, #12]	@ tmp200, detT
ARM GAS  /tmp/ccISJtFt.s 			page 11


 461 01e4 DB43     		mvns	r3, r3	@ tmp199, tmp200
 462 01e6 DB0F     		lsrs	r3, r3, #31	@ tmp201, tmp199,
 463 01e8 DBB2     		uxtb	r3, r3	@ D.5853, tmp201
 464 01ea 5340     		eors	r3, r2	@ tmp202, D.5853
 465 01ec DBB2     		uxtb	r3, r3	@ D.5853, tmp202
 466 01ee 0093     		str	r3, [sp]	@ D.5853, L3_positive
 111:code/main.c   **** 	  
 112:code/main.c   **** 	  
 113:code/main.c   **** 	   if(L1_positive && L2_positive && L3_positive)
 467              		.loc 1 113 0
 468 01f0 029B     		ldr	r3, [sp, #8]	@ tmp203, L1_positive
 469 01f2 002B     		cmp	r3, #0	@ tmp203,
 470 01f4 0BD0     		beq	.L24	@,
 471              		.loc 1 113 0 is_stmt 0 discriminator 1
 472 01f6 019B     		ldr	r3, [sp, #4]	@ tmp204, L2_positive
 473 01f8 002B     		cmp	r3, #0	@ tmp204,
 474 01fa 08D0     		beq	.L24	@,
 475              		.loc 1 113 0 discriminator 2
 476 01fc 009B     		ldr	r3, [sp]	@ tmp205, L3_positive
 477 01fe 002B     		cmp	r3, #0	@ tmp205,
 478 0200 05D0     		beq	.L24	@,
 114:code/main.c   ****             	write_pix(x,y,1);
 479              		.loc 1 114 0 is_stmt 1
 480 0202 0C99     		ldr	r1, [sp, #48]	@ tmp206, y
 481 0204 0D9B     		ldr	r3, [sp, #52]	@ tmp207, x
 482 0206 0122     		movs	r2, #1	@,
 483 0208 1800     		movs	r0, r3	@, tmp207
 484 020a FFF7FEFF 		bl	write_pix	@
 485              	.L24:
 102:code/main.c   ****     
 486              		.loc 1 102 0 discriminator 2
 487 020e 0C9B     		ldr	r3, [sp, #48]	@ tmp209, y
 488 0210 0133     		adds	r3, r3, #1	@ tmp208,
 489 0212 0C93     		str	r3, [sp, #48]	@ tmp208, y
 490              	.L22:
 102:code/main.c   ****     
 491              		.loc 1 102 0 is_stmt 0 discriminator 1
 492 0214 0C9A     		ldr	r2, [sp, #48]	@ tmp210, y
 493 0216 E023     		movs	r3, #224	@ tmp216,
 494 0218 FF33     		adds	r3, r3, #255	@ tmp211,
 495 021a 9A42     		cmp	r2, r3	@ tmp210, tmp211
 496 021c 92DD     		ble	.L25	@,
 497              	.LBE4:
 101:code/main.c   ****     for (int y = 0 ; y < 480 ; y++) {
 498              		.loc 1 101 0 is_stmt 1 discriminator 2
 499 021e 0D9B     		ldr	r3, [sp, #52]	@ tmp213, x
 500 0220 0133     		adds	r3, r3, #1	@ tmp212,
 501 0222 0D93     		str	r3, [sp, #52]	@ tmp212, x
 502              	.L21:
 101:code/main.c   ****     for (int y = 0 ; y < 480 ; y++) {
 503              		.loc 1 101 0 is_stmt 0 discriminator 1
 504 0224 0D9B     		ldr	r3, [sp, #52]	@ tmp214, x
 505 0226 024A     		ldr	r2, .L28	@ tmp215,
 506 0228 9342     		cmp	r3, r2	@ tmp214, tmp215
 507 022a 88DD     		ble	.L26	@,
 508              	.LBE3:
 509              	.LBE2:
ARM GAS  /tmp/ccISJtFt.s 			page 12


 115:code/main.c   **** 
 116:code/main.c   ****     } 
 117:code/main.c   ****   }
 118:code/main.c   ****  }
 510              		.loc 1 118 0 is_stmt 1
 511 022c 78E7     		b	.L27	@
 512              	.L29:
 513 022e C046     		.align	2
 514              	.L28:
 515 0230 7F020000 		.word	639
 516              		.cfi_endproc
 517              	.LFE6:
 518              		.size	main, .-main
 519              	.Letext0:
 520              		.file 2 "/srv/gcc-arm-none-eabi-5_4-2016q3/arm-none-eabi/include/machine/_default_types.h"
 521              		.file 3 "/srv/gcc-arm-none-eabi-5_4-2016q3/arm-none-eabi/include/sys/_stdint.h"